target datalayout = "e-m:e-p270:32:32-p271:32:32-p272:64:64-i64:64-i128:128-f80:128-n8:16:32:64-S128"
target triple = "x86_64-pc-linux-gnu"

%struct.atomic_p_t = type { ptr }
%struct.arena_config_s = type { ptr, i8 }
%struct.nstime_t = type { i64 }
%struct.arena_s = type { [2 x %struct.atomic_u_t], %struct.atomic_u_t, ptr, %struct.arena_stats_s, %struct.anon, %struct.anon.0, %struct.malloc_mutex_s, %struct.atomic_u_t, %struct.edata_list_active_t, %struct.malloc_mutex_s, %struct.pa_shard_s, i32, ptr, %struct.nstime_t, [32 x i8], [32 x i8], [0 x %struct.bin_with_batch_s] }
%struct.arena_stats_s = type { i64, i64, i64, i64, i64, i64, %struct.atomic_zu_t, i64, i64, i64, i64, i64, i64, %struct.pa_shard_stats_s, i64, i64, [12 x %struct.mutex_prof_data_t], [196 x %struct.arena_stats_large_s], %struct.nstime_t }
%struct.atomic_zu_t = type { i64 }
%struct.pa_shard_stats_s = type { i64, %struct.pac_stats_s }
%struct.pac_stats_s = type { %struct.pac_decay_stats_s, %struct.pac_decay_stats_s, i64, %struct.atomic_zu_t, %struct.atomic_zu_t }
%struct.pac_decay_stats_s = type { %struct.locked_u64_s, %struct.locked_u64_s, %struct.locked_u64_s }
%struct.locked_u64_s = type { %struct.atomic_u64_t }
%struct.atomic_u64_t = type { i64 }
%struct.mutex_prof_data_t = type { %struct.nstime_t, %struct.nstime_t, i64, i64, i32, %struct.atomic_u32_t, i64, ptr, i64 }
%struct.atomic_u32_t = type { i32 }
%struct.arena_stats_large_s = type { %struct.locked_u64_s, %struct.locked_u64_s, %struct.locked_u64_s, %struct.locked_u64_s, %struct.locked_u64_s, i64 }
%struct.anon = type { ptr }
%struct.anon.0 = type { ptr }
%struct.atomic_u_t = type { i32 }
%struct.edata_list_active_t = type { %struct.anon.3 }
%struct.anon.3 = type { ptr }
%struct.malloc_mutex_s = type { %union.anon }
%union.anon = type { %struct.anon.1 }
%struct.anon.1 = type { %struct.mutex_prof_data_t, %struct.atomic_b_t, %union.pthread_mutex_t }
%struct.atomic_b_t = type { i8 }
%union.pthread_mutex_t = type { %struct.__pthread_mutex_s }
%struct.__pthread_mutex_s = type { i32, i32, i32, i32, i32, i16, i16, %struct.__pthread_internal_list }
%struct.__pthread_internal_list = type { ptr, ptr }
%struct.pa_shard_s = type { ptr, %struct.atomic_zu_t, %struct.atomic_b_t, i8, %struct.pac_s, %struct.sec_s, %struct.hpa_shard_s, %struct.edata_cache_s, i32, ptr, ptr, ptr, ptr }
%struct.pac_s = type { %struct.pai_s, %struct.ecache_s, %struct.ecache_s, %struct.ecache_s, ptr, ptr, ptr, %struct.exp_grow_s, %struct.malloc_mutex_s, %struct.san_bump_alloc_s, %struct.atomic_zu_t, %struct.decay_s, %struct.decay_s, ptr, ptr, %struct.atomic_zu_t }
%struct.pai_s = type { ptr, ptr, ptr, ptr, ptr, ptr, ptr }
%struct.ecache_s = type { %struct.malloc_mutex_s, %struct.eset_s, %struct.eset_s, i32, i32, i8 }
%struct.eset_s = type { [4 x i64], [200 x %struct.eset_bin_s], [200 x %struct.eset_bin_stats_s], %struct.edata_list_inactive_t, %struct.atomic_zu_t, i32 }
%struct.eset_bin_s = type { %struct.edata_heap_t, %struct.edata_cmp_summary_s }
%struct.edata_heap_t = type { %struct.ph_s }
%struct.ph_s = type { ptr, i64 }
%struct.edata_cmp_summary_s = type { i64, i64 }
%struct.eset_bin_stats_s = type { %struct.atomic_zu_t, %struct.atomic_zu_t }
%struct.edata_list_inactive_t = type { %struct.anon.4 }
%struct.anon.4 = type { ptr }
%struct.exp_grow_s = type { i32, i32 }
%struct.san_bump_alloc_s = type { %struct.malloc_mutex_s, ptr }
%struct.decay_s = type { %struct.malloc_mutex_s, i8, %struct.atomic_zd_t, %struct.nstime_t, %struct.nstime_t, i64, %struct.nstime_t, i64, i64, [200 x i64], i64 }
%struct.atomic_zd_t = type { i64 }
%struct.sec_s = type { %struct.pai_s, ptr, %struct.sec_opts_s, ptr, i32 }
%struct.sec_opts_s = type { i64, i64, i64, i64, i64 }
%struct.hpa_shard_s = type { %struct.pai_s, ptr, %struct.malloc_mutex_s, %struct.malloc_mutex_s, ptr, %struct.edata_cache_fast_s, %struct.psset_s, i64, i32, ptr, %struct.hpa_shard_opts_s, i64, %struct.hpa_shard_nonderived_stats_s, %struct.nstime_t }
%struct.edata_cache_fast_s = type { %struct.edata_list_inactive_t, ptr, i8 }
%struct.psset_s = type { [64 x %struct.hpdata_age_heap_t], [1 x i64], %struct.psset_stats_s, %struct.hpdata_empty_list_t, [128 x %struct.hpdata_purge_list_t], [2 x i64], %struct.hpdata_hugify_list_t }
%struct.hpdata_age_heap_t = type { %struct.ph_s }
%struct.psset_stats_s = type { %struct.psset_bin_stats_s, [2 x %struct.psset_bin_stats_s], [64 x [2 x %struct.psset_bin_stats_s]], [2 x %struct.psset_bin_stats_s], [2 x %struct.psset_bin_stats_s] }
%struct.psset_bin_stats_s = type { i64, i64, i64 }
%struct.hpdata_empty_list_t = type { %struct.anon.5 }
%struct.anon.5 = type { ptr }
%struct.hpdata_purge_list_t = type { %struct.anon.6 }
%struct.anon.6 = type { ptr }
%struct.hpdata_hugify_list_t = type { %struct.anon.7 }
%struct.anon.7 = type { ptr }
%struct.hpa_shard_opts_s = type { i64, i64, i32, i8, i64, i8, i64, i64 }
%struct.hpa_shard_nonderived_stats_s = type { i64, i64, i64, i64, i64 }
%struct.edata_cache_s = type { %struct.edata_avail_t, %struct.atomic_zu_t, %struct.malloc_mutex_s, ptr }
%struct.edata_avail_t = type { %struct.ph_s }
%struct.bin_with_batch_s = type { %struct.bin_s, %struct.batcher_s, [16 x %struct.bin_remote_free_data_s] }
%struct.bin_s = type { %struct.malloc_mutex_s, %struct.bin_stats_s, ptr, %struct.edata_heap_t, %struct.edata_list_active_t }
%struct.bin_stats_s = type { i64, i64, i64, i64, i64, i64, i64, i64, i64, i64, i64, i64, i64, i64 }
%struct.batcher_s = type { %struct.atomic_zu_t, i64, i64, %struct.malloc_mutex_s }
%struct.bin_remote_free_data_s = type { ptr, ptr }

@je_arenas = external global [0 x %struct.atomic_p_t], align 8
@je_arena_config_default = external constant %struct.arena_config_s, align 8

; Function Attrs: alwaysinline nounwind uwtable
define internal i32 @atomic_enum_to_builtin(i32 noundef %0) #3 {
  %2 = alloca i32, align 4
  %3 = alloca i32, align 4
  store i32 %0, ptr %3, align 4, !tbaa !11
  %4 = load i32, ptr %3, align 4, !tbaa !11
  switch i32 %4, label %10 [
    i32 0, label %5
    i32 1, label %6
    i32 2, label %7
    i32 3, label %8
    i32 4, label %9
  ]

5:                                                ; preds = %1
  store i32 0, ptr %2, align 4
  br label %12

6:                                                ; preds = %1
  store i32 2, ptr %2, align 4
  br label %12

7:                                                ; preds = %1
  store i32 3, ptr %2, align 4
  br label %12

8:                                                ; preds = %1
  store i32 4, ptr %2, align 4
  br label %12

9:                                                ; preds = %1
  store i32 5, ptr %2, align 4
  br label %12

10:                                               ; preds = %1
  br label %11

11:                                               ; preds = %10
  unreachable

12:                                               ; preds = %5, %6, %7, %8, %9
  %13 = load i32, ptr %2, align 4
  ret i32 %13
}

; Function Attrs: alwaysinline nounwind uwtable
define internal ptr @atomic_load_p(ptr noundef %0, i32 noundef %1) #3 {
  %3 = alloca ptr, align 8
  %4 = alloca i32, align 4
  %5 = alloca ptr, align 8
  store ptr %0, ptr %3, align 8, !tbaa !18
  store i32 %1, ptr %4, align 4, !tbaa !11
  call void @llvm.lifetime.start.p0(i64 8, ptr %5) #8
  %6 = load ptr, ptr %3, align 8, !tbaa !18
  %7 = getelementptr inbounds nuw %struct.atomic_p_t, ptr %6, i32 0, i32 0
  %8 = load i32, ptr %4, align 4, !tbaa !11
  %9 = call i32 @atomic_enum_to_builtin(i32 noundef %8)
  switch i32 %9, label %10 [
    i32 1, label %12
    i32 2, label %12
    i32 5, label %14
  ]

10:                                               ; preds = %2
  %11 = load atomic i64, ptr %7 monotonic, align 8
  store i64 %11, ptr %5, align 8
  br label %16

12:                                               ; preds = %2, %2
  %13 = load atomic i64, ptr %7 acquire, align 8
  store i64 %13, ptr %5, align 8
  br label %16

14:                                               ; preds = %2
  %15 = load atomic i64, ptr %7 seq_cst, align 8
  store i64 %15, ptr %5, align 8
  br label %16

16:                                               ; preds = %14, %12, %10
  %17 = load ptr, ptr %5, align 8, !tbaa !18
  call void @llvm.lifetime.end.p0(i64 8, ptr %5) #8
  ret ptr %17
}

; Function Attrs: nounwind uwtable
define internal ptr @extent_alloc_core(ptr noundef %0, ptr noundef %1, ptr noundef %2, i64 noundef %3, i64 noundef %4, ptr noundef %5, ptr noundef %6, i32 noundef %7) #0 {
  %9 = alloca ptr, align 8
  %10 = alloca ptr, align 8
  %11 = alloca ptr, align 8
  %12 = alloca ptr, align 8
  %13 = alloca i64, align 8
  %14 = alloca i64, align 8
  %15 = alloca ptr, align 8
  %16 = alloca ptr, align 8
  %17 = alloca i32, align 4
  %18 = alloca ptr, align 8
  %19 = alloca i32, align 4
  store ptr %0, ptr %10, align 8, !tbaa !16
  store ptr %1, ptr %11, align 8, !tbaa !23
  store ptr %2, ptr %12, align 8, !tbaa !18
  store i64 %3, ptr %13, align 8, !tbaa !19
  store i64 %4, ptr %14, align 8, !tbaa !19
  store ptr %5, ptr %15, align 8, !tbaa !21
  store ptr %6, ptr %16, align 8, !tbaa !21
  store i32 %7, ptr %17, align 4, !tbaa !11
  call void @llvm.lifetime.start.p0(i64 8, ptr %18) #8
  br label %20

20:                                               ; preds = %8
  br label %21

21:                                               ; preds = %20
  br label %22

22:                                               ; preds = %21
  br label %23

23:                                               ; preds = %22
  br label %24

24:                                               ; preds = %23
  br label %25

25:                                               ; preds = %24
  %26 = load i32, ptr %17, align 4, !tbaa !11
  %27 = icmp eq i32 %26, 1
  br i1 %27, label %28, label %40

28:                                               ; preds = %25
  %29 = load ptr, ptr %10, align 8, !tbaa !16
  %30 = load ptr, ptr %11, align 8, !tbaa !23
  %31 = load ptr, ptr %12, align 8, !tbaa !18
  %32 = load i64, ptr %13, align 8, !tbaa !19
  %33 = load i64, ptr %14, align 8, !tbaa !19
  %34 = load ptr, ptr %15, align 8, !tbaa !21
  %35 = load ptr, ptr %16, align 8, !tbaa !21
  %36 = call ptr @je_extent_alloc_dss(ptr noundef %29, ptr noundef %30, ptr noundef %31, i64 noundef %32, i64 noundef %33, ptr noundef %34, ptr noundef %35)
  store ptr %36, ptr %18, align 8, !tbaa !18
  %37 = icmp ne ptr %36, null
  br i1 %37, label %38, label %40

38:                                               ; preds = %28
  %39 = load ptr, ptr %18, align 8, !tbaa !18
  store ptr %39, ptr %9, align 8
  store i32 1, ptr %19, align 4
  br label %66

40:                                               ; preds = %28, %25
  %41 = load ptr, ptr %12, align 8, !tbaa !18
  %42 = load i64, ptr %13, align 8, !tbaa !19
  %43 = load i64, ptr %14, align 8, !tbaa !19
  %44 = load ptr, ptr %15, align 8, !tbaa !21
  %45 = load ptr, ptr %16, align 8, !tbaa !21
  %46 = call ptr @je_extent_alloc_mmap(ptr noundef %41, i64 noundef %42, i64 noundef %43, ptr noundef %44, ptr noundef %45)
  store ptr %46, ptr %18, align 8, !tbaa !18
  %47 = icmp ne ptr %46, null
  br i1 %47, label %48, label %50

48:                                               ; preds = %40
  %49 = load ptr, ptr %18, align 8, !tbaa !18
  store ptr %49, ptr %9, align 8
  store i32 1, ptr %19, align 4
  br label %66

50:                                               ; preds = %40
  %51 = load i32, ptr %17, align 4, !tbaa !11
  %52 = icmp eq i32 %51, 2
  br i1 %52, label %53, label %65

53:                                               ; preds = %50
  %54 = load ptr, ptr %10, align 8, !tbaa !16
  %55 = load ptr, ptr %11, align 8, !tbaa !23
  %56 = load ptr, ptr %12, align 8, !tbaa !18
  %57 = load i64, ptr %13, align 8, !tbaa !19
  %58 = load i64, ptr %14, align 8, !tbaa !19
  %59 = load ptr, ptr %15, align 8, !tbaa !21
  %60 = load ptr, ptr %16, align 8, !tbaa !21
  %61 = call ptr @je_extent_alloc_dss(ptr noundef %54, ptr noundef %55, ptr noundef %56, i64 noundef %57, i64 noundef %58, ptr noundef %59, ptr noundef %60)
  store ptr %61, ptr %18, align 8, !tbaa !18
  %62 = icmp ne ptr %61, null
  br i1 %62, label %63, label %65

63:                                               ; preds = %53
  %64 = load ptr, ptr %18, align 8, !tbaa !18
  store ptr %64, ptr %9, align 8
  store i32 1, ptr %19, align 4
  br label %66

65:                                               ; preds = %53, %50
  store ptr null, ptr %9, align 8
  store i32 1, ptr %19, align 4
  br label %66

66:                                               ; preds = %65, %63, %48, %38
  call void @llvm.lifetime.end.p0(i64 8, ptr %18) #8
  %67 = load ptr, ptr %9, align 8
  ret ptr %67
}

; Function Attrs: alwaysinline nounwind uwtable
define internal i32 @atomic_load_u(ptr noundef %0, i32 noundef %1) #3 {
  %3 = alloca ptr, align 8
  %4 = alloca i32, align 4
  %5 = alloca i32, align 4
  store ptr %0, ptr %3, align 8, !tbaa !18
  store i32 %1, ptr %4, align 4, !tbaa !11
  call void @llvm.lifetime.start.p0(i64 4, ptr %5) #8
  %6 = load ptr, ptr %3, align 8, !tbaa !18
  %7 = getelementptr inbounds nuw %struct.atomic_u_t, ptr %6, i32 0, i32 0
  %8 = load i32, ptr %4, align 4, !tbaa !11
  %9 = call i32 @atomic_enum_to_builtin(i32 noundef %8)
  switch i32 %9, label %10 [
    i32 1, label %12
    i32 2, label %12
    i32 5, label %14
  ]

10:                                               ; preds = %2
  %11 = load atomic i32, ptr %7 monotonic, align 4
  store i32 %11, ptr %5, align 4
  br label %16

12:                                               ; preds = %2, %2
  %13 = load atomic i32, ptr %7 acquire, align 4
  store i32 %13, ptr %5, align 4
  br label %16

14:                                               ; preds = %2
  %15 = load atomic i32, ptr %7 seq_cst, align 4
  store i32 %15, ptr %5, align 4
  br label %16

16:                                               ; preds = %14, %12, %10
  %17 = load i32, ptr %5, align 4, !tbaa !11
  call void @llvm.lifetime.end.p0(i64 4, ptr %5) #8
  ret i32 %17
}

; Function Attrs: inlinehint nounwind uwtable
define internal ptr @arena_get(ptr noundef %0, i32 noundef %1, i1 noundef zeroext %2) #1 {
  %4 = alloca ptr, align 8
  %5 = alloca i32, align 4
  %6 = alloca i8, align 1
  %7 = alloca ptr, align 8
  store ptr %0, ptr %4, align 8, !tbaa !16
  store i32 %1, ptr %5, align 4, !tbaa !11
  %8 = zext i1 %2 to i8
  store i8 %8, ptr %6, align 1, !tbaa !25
  call void @llvm.lifetime.start.p0(i64 8, ptr %7) #8
  br label %9

9:                                                ; preds = %3
  br label %10

10:                                               ; preds = %9
  br label %11

11:                                               ; preds = %10
  %12 = load i32, ptr %5, align 4, !tbaa !11
  %13 = zext i32 %12 to i64
  %14 = getelementptr inbounds nuw [0 x %struct.atomic_p_t], ptr @je_arenas, i64 0, i64 %13
  %15 = call ptr @atomic_load_p(ptr noundef %14, i32 noundef 1)
  store ptr %15, ptr %7, align 8, !tbaa !23
  %16 = load ptr, ptr %7, align 8, !tbaa !23
  %17 = icmp eq ptr %16, null
  %18 = xor i1 %17, true
  %19 = xor i1 %18, true
  %20 = zext i1 %19 to i32
  %21 = sext i32 %20 to i64
  %22 = call i64 @llvm.expect.i64(i64 %21, i64 0)
  %23 = icmp ne i64 %22, 0
  br i1 %23, label %24, label %32

24:                                               ; preds = %11
  %25 = load i8, ptr %6, align 1, !tbaa !25, !range !27, !noundef !28
  %26 = trunc i8 %25 to i1
  br i1 %26, label %27, label %31

27:                                               ; preds = %24
  %28 = load ptr, ptr %4, align 8, !tbaa !16
  %29 = load i32, ptr %5, align 4, !tbaa !11
  %30 = call ptr @je_arena_init(ptr noundef %28, i32 noundef %29, ptr noundef @je_arena_config_default)
  store ptr %30, ptr %7, align 8, !tbaa !23
  br label %31

31:                                               ; preds = %27, %24
  br label %32

32:                                               ; preds = %31, %11
  %33 = load ptr, ptr %7, align 8, !tbaa !23
  call void @llvm.lifetime.end.p0(i64 8, ptr %7) #8
  ret ptr %33
}

; Function Attrs: nounwind uwtable
define hidden ptr @je_ehooks_default_alloc_impl(ptr noundef %0, ptr noundef %1, i64 noundef %2, i64 noundef %3, ptr noundef %4, ptr noundef %5, i32 noundef %6) #0 {
  %8 = alloca ptr, align 8
  %9 = alloca ptr, align 8
  %10 = alloca i64, align 8
  %11 = alloca i64, align 8
  %12 = alloca ptr, align 8
  %13 = alloca ptr, align 8
  %14 = alloca i32, align 4
  %15 = alloca ptr, align 8
  %16 = alloca i32, align 4
  %17 = alloca ptr, align 8
  store ptr %0, ptr %8, align 8, !tbaa !16
  store ptr %1, ptr %9, align 8, !tbaa !18
  store i64 %2, ptr %10, align 8, !tbaa !19
  store i64 %3, ptr %11, align 8, !tbaa !19
  store ptr %4, ptr %12, align 8, !tbaa !21
  store ptr %5, ptr %13, align 8, !tbaa !21
  store i32 %6, ptr %14, align 4, !tbaa !11
  call void @llvm.lifetime.start.p0(i64 8, ptr %15) #8
  %18 = load ptr, ptr %8, align 8, !tbaa !16
  %19 = load i32, ptr %14, align 4, !tbaa !11
  %20 = call ptr @arena_get(ptr noundef %18, i32 noundef %19, i1 noundef zeroext false)
  store ptr %20, ptr %15, align 8, !tbaa !23
  br label %21

21:                                               ; preds = %7
  br label %22

22:                                               ; preds = %21
  br label %23

23:                                               ; preds = %22
  call void @llvm.lifetime.start.p0(i64 4, ptr %16) #8
  %24 = load ptr, ptr %15, align 8, !tbaa !23
  %25 = icmp eq ptr %24, null
  br i1 %25, label %26, label %27

26:                                               ; preds = %23
  br label %31

27:                                               ; preds = %23
  %28 = load ptr, ptr %15, align 8, !tbaa !23
  %29 = getelementptr inbounds nuw %struct.arena_s, ptr %28, i32 0, i32 7
  %30 = call i32 @atomic_load_u(ptr noundef %29, i32 noundef 0)
  br label %31

31:                                               ; preds = %27, %26
  %32 = phi i32 [ 0, %26 ], [ %30, %27 ]
  store i32 %32, ptr %16, align 4, !tbaa !11
  call void @llvm.lifetime.start.p0(i64 8, ptr %17) #8
  %33 = load ptr, ptr %8, align 8, !tbaa !16
  %34 = load ptr, ptr %15, align 8, !tbaa !23
  %35 = load ptr, ptr %9, align 8, !tbaa !18
  %36 = load i64, ptr %10, align 8, !tbaa !19
  %37 = load i64, ptr %11, align 8, !tbaa !19
  %38 = load ptr, ptr %12, align 8, !tbaa !21
  %39 = load ptr, ptr %13, align 8, !tbaa !21
  %40 = load i32, ptr %16, align 4, !tbaa !11
  %41 = call ptr @extent_alloc_core(ptr noundef %33, ptr noundef %34, ptr noundef %35, i64 noundef %36, i64 noundef %37, ptr noundef %38, ptr noundef %39, i32 noundef %40)
  store ptr %41, ptr %17, align 8, !tbaa !18
  %42 = load ptr, ptr %17, align 8, !tbaa !18
  %43 = icmp ne ptr %42, null
  br i1 %43, label %44, label %47

44:                                               ; preds = %31
  %45 = load ptr, ptr %17, align 8, !tbaa !18
  %46 = load i64, ptr %10, align 8, !tbaa !19
  call void @je_pages_set_thp_state(ptr noundef %45, i64 noundef %46)
  br label %47

47:                                               ; preds = %44, %31
  %48 = load ptr, ptr %17, align 8, !tbaa !18
  call void @llvm.lifetime.end.p0(i64 8, ptr %17) #8
  call void @llvm.lifetime.end.p0(i64 4, ptr %16) #8
  call void @llvm.lifetime.end.p0(i64 8, ptr %15) #8
  ret ptr %48
}